; ModuleID = 'source-C-CXX/52/1417.c'
source_filename = "source-C-CXX/52/1417.c"
target datalayout = "e-m:e-p270:32:32-p271:32:32-p272:64:64-i64:64-f80:128-n8:16:32:64-S128"
target triple = "x86_64-pc-linux-gnu"

@.str = private unnamed_addr constant [4 x i8] c"%d \00", align 1
@.str.1 = private unnamed_addr constant [3 x i8] c"%d\00", align 1
@.str.2 = private unnamed_addr constant [4 x i8] c",%d\00", align 1

; Function Attrs: nofree nounwind sspstrong uwtable
define dso_local i32 @main() local_unnamed_addr #0 {
  %1 = alloca i32, align 4
  %2 = bitcast i32* %1 to i8*
  call void @llvm.lifetime.start.p0i8(i64 4, i8* nonnull %2) #5
  %3 = call i32 (i8*, ...) @__isoc99_scanf(i8* getelementptr inbounds ([4 x i8], [4 x i8]* @.str, i64 0, i64 0), i32* nonnull %1)
  %4 = load i32, i32* %1, align 4, !tbaa !5
  %5 = zext i32 %4 to i64
  %6 = call i8* @llvm.stacksave()
  %7 = alloca i32, i64 %5, align 16
  %8 = load i32, i32* %1, align 4, !tbaa !5
  %9 = icmp sgt i32 %8, 0
  br i1 %9, label %12, label %20

10:                                               ; preds = %12
  %11 = icmp sgt i32 %17, 0
  br i1 %11, label %21, label %20

12:                                               ; preds = %0, %12
  %13 = phi i64 [ %16, %12 ], [ 0, %0 ]
  %14 = getelementptr inbounds i32, i32* %7, i64 %13
  %15 = call i32 (i8*, ...) @__isoc99_scanf(i8* getelementptr inbounds ([3 x i8], [3 x i8]* @.str.1, i64 0, i64 0), i32* nonnull %14)
  %16 = add nuw nsw i64 %13, 1
  %17 = load i32, i32* %1, align 4, !tbaa !5
  %18 = sext i32 %17 to i64
  %19 = icmp slt i64 %16, %18
  br i1 %19, label %12, label %10, !llvm.loop !9

20:                                               ; preds = %124, %0, %10
  call void @llvm.stackrestore(i8* %6)
  call void @llvm.lifetime.end.p0i8(i64 4, i8* nonnull %2) #5
  ret i32 0

21:                                               ; preds = %10, %124
  %22 = phi i64 [ %125, %124 ], [ 0, %10 ]
  %23 = and i64 %22, 9223372036854775800
  %24 = add nsw i64 %23, -8
  %25 = lshr exact i64 %24, 3
  %26 = add nuw nsw i64 %25, 1
  %27 = icmp eq i64 %22, 0
  br i1 %27, label %106, label %28

28:                                               ; preds = %21
  %29 = getelementptr inbounds i32, i32* %7, i64 %22
  %30 = load i32, i32* %29, align 4, !tbaa !5
  %31 = trunc i64 %22 to i32
  %32 = icmp ult i64 %22, 8
  br i1 %32, label %103, label %33

33:                                               ; preds = %28
  %34 = and i64 %22, 9223372036854775800
  %35 = insertelement <4 x i32> <i32 poison, i32 0, i32 0, i32 0>, i32 %31, i32 0
  %36 = insertelement <4 x i32> poison, i32 %30, i32 0
  %37 = shufflevector <4 x i32> %36, <4 x i32> poison, <4 x i32> zeroinitializer
  %38 = insertelement <4 x i32> poison, i32 %30, i32 0
  %39 = shufflevector <4 x i32> %38, <4 x i32> poison, <4 x i32> zeroinitializer
  %40 = and i64 %26, 1
  %41 = icmp eq i64 %24, 0
  br i1 %41, label %77, label %42

42:                                               ; preds = %33
  %43 = and i64 %26, 4611686018427387902
  br label %44

44:                                               ; preds = %44, %42
  %45 = phi i64 [ 0, %42 ], [ %74, %44 ]
  %46 = phi <4 x i32> [ %35, %42 ], [ %72, %44 ]
  %47 = phi <4 x i32> [ zeroinitializer, %42 ], [ %73, %44 ]
  %48 = phi i64 [ %43, %42 ], [ %75, %44 ]
  %49 = getelementptr inbounds i32, i32* %7, i64 %45
  %50 = bitcast i32* %49 to <4 x i32>*
  %51 = load <4 x i32>, <4 x i32>* %50, align 16, !tbaa !5
  %52 = getelementptr inbounds i32, i32* %49, i64 4
  %53 = bitcast i32* %52 to <4 x i32>*
  %54 = load <4 x i32>, <4 x i32>* %53, align 16, !tbaa !5
  %55 = icmp ne <4 x i32> %37, %51
  %56 = icmp ne <4 x i32> %39, %54
  %57 = sext <4 x i1> %55 to <4 x i32>
  %58 = sext <4 x i1> %56 to <4 x i32>
  %59 = add <4 x i32> %46, %57
  %60 = add <4 x i32> %47, %58
  %61 = or i64 %45, 8
  %62 = getelementptr inbounds i32, i32* %7, i64 %61
  %63 = bitcast i32* %62 to <4 x i32>*
  %64 = load <4 x i32>, <4 x i32>* %63, align 16, !tbaa !5
  %65 = getelementptr inbounds i32, i32* %62, i64 4
  %66 = bitcast i32* %65 to <4 x i32>*
  %67 = load <4 x i32>, <4 x i32>* %66, align 16, !tbaa !5
  %68 = icmp ne <4 x i32> %37, %64
  %69 = icmp ne <4 x i32> %39, %67
  %70 = sext <4 x i1> %68 to <4 x i32>
  %71 = sext <4 x i1> %69 to <4 x i32>
  %72 = add <4 x i32> %59, %70
  %73 = add <4 x i32> %60, %71
  %74 = add nuw i64 %45, 16
  %75 = add i64 %48, -2
  %76 = icmp eq i64 %75, 0
  br i1 %76, label %77, label %44, !llvm.loop !11

77:                                               ; preds = %44, %33
  %78 = phi <4 x i32> [ undef, %33 ], [ %72, %44 ]
  %79 = phi <4 x i32> [ undef, %33 ], [ %73, %44 ]
  %80 = phi i64 [ 0, %33 ], [ %74, %44 ]
  %81 = phi <4 x i32> [ %35, %33 ], [ %72, %44 ]
  %82 = phi <4 x i32> [ zeroinitializer, %33 ], [ %73, %44 ]
  %83 = icmp eq i64 %40, 0
  br i1 %83, label %97, label %84

84:                                               ; preds = %77
  %85 = getelementptr inbounds i32, i32* %7, i64 %80
  %86 = getelementptr inbounds i32, i32* %85, i64 4
  %87 = bitcast i32* %86 to <4 x i32>*
  %88 = load <4 x i32>, <4 x i32>* %87, align 16, !tbaa !5
  %89 = icmp ne <4 x i32> %39, %88
  %90 = sext <4 x i1> %89 to <4 x i32>
  %91 = add <4 x i32> %82, %90
  %92 = bitcast i32* %85 to <4 x i32>*
  %93 = load <4 x i32>, <4 x i32>* %92, align 16, !tbaa !5
  %94 = icmp ne <4 x i32> %37, %93
  %95 = sext <4 x i1> %94 to <4 x i32>
  %96 = add <4 x i32> %81, %95
  br label %97

97:                                               ; preds = %77, %84
  %98 = phi <4 x i32> [ %78, %77 ], [ %96, %84 ]
  %99 = phi <4 x i32> [ %79, %77 ], [ %91, %84 ]
  %100 = add <4 x i32> %99, %98
  %101 = call i32 @llvm.vector.reduce.add.v4i32(<4 x i32> %100)
  %102 = icmp eq i64 %22, %34
  br i1 %102, label %109, label %103

103:                                              ; preds = %28, %97
  %104 = phi i64 [ 0, %28 ], [ %34, %97 ]
  %105 = phi i32 [ %31, %28 ], [ %101, %97 ]
  br label %112

106:                                              ; preds = %21
  %107 = load i32, i32* %7, align 16, !tbaa !5
  %108 = call i32 (i8*, ...) @printf(i8* nonnull dereferenceable(1) getelementptr inbounds ([3 x i8], [3 x i8]* @.str.1, i64 0, i64 0), i32 %107)
  br label %124

109:                                              ; preds = %112, %97
  %110 = phi i32 [ %101, %97 ], [ %119, %112 ]
  %111 = icmp eq i32 %110, 0
  br i1 %111, label %122, label %124

112:                                              ; preds = %103, %112
  %113 = phi i64 [ %120, %112 ], [ %104, %103 ]
  %114 = phi i32 [ %119, %112 ], [ %105, %103 ]
  %115 = getelementptr inbounds i32, i32* %7, i64 %113
  %116 = load i32, i32* %115, align 4, !tbaa !5
  %117 = icmp ne i32 %30, %116
  %118 = sext i1 %117 to i32
  %119 = add nsw i32 %114, %118
  %120 = add nuw nsw i64 %113, 1
  %121 = icmp eq i64 %120, %22
  br i1 %121, label %109, label %112, !llvm.loop !13

122:                                              ; preds = %109
  %123 = call i32 (i8*, ...) @printf(i8* nonnull dereferenceable(1) getelementptr inbounds ([4 x i8], [4 x i8]* @.str.2, i64 0, i64 0), i32 %30)
  br label %124

124:                                              ; preds = %109, %122, %106
  %125 = add nuw nsw i64 %22, 1
  %126 = load i32, i32* %1, align 4, !tbaa !5
  %127 = sext i32 %126 to i64
  %128 = icmp slt i64 %125, %127
  br i1 %128, label %21, label %20, !llvm.loop !15
}

; Function Attrs: argmemonly mustprogress nofree nosync nounwind willreturn
declare void @llvm.lifetime.start.p0i8(i64 immarg, i8* nocapture) #1

; Function Attrs: nofree nounwind
declare noundef i32 @__isoc99_scanf(i8* nocapture noundef readonly, ...) local_unnamed_addr #2

; Function Attrs: mustprogress nofree nosync nounwind willreturn
declare i8* @llvm.stacksave() #3

; Function Attrs: argmemonly mustprogress nofree nosync nounwind willreturn
declare void @llvm.lifetime.end.p0i8(i64 immarg, i8* nocapture) #1

; Function Attrs: nofree nounwind
declare noundef i32 @printf(i8* nocapture noundef readonly, ...) local_unnamed_addr #2

; Function Attrs: mustprogress nofree nosync nounwind willreturn
declare void @llvm.stackrestore(i8*) #3

; Function Attrs: nofree nosync nounwind readnone willreturn
declare i32 @llvm.vector.reduce.add.v4i32(<4 x i32>) #4


!llvm.module.flags = !{!0, !1, !2, !3}
!llvm.ident = !{!4}

!0 = !{i32 1, !"wchar_size", i32 4}
!1 = !{i32 7, !"PIC Level", i32 2}
!2 = !{i32 7, !"PIE Level", i32 2}
!3 = !{i32 7, !"uwtable", i32 1}
!4 = !{!"clang version 13.0.0"}
!5 = !{!6, !6, i64 0}
!6 = !{!"int", !7, i64 0}
!7 = !{!"omnipotent char", !8, i64 0}
!8 = !{!"Simple C/C++ TBAA"}
!9 = distinct !{!9, !10}
!10 = !{!"llvm.loop.mustprogress"}
!11 = distinct !{!11, !10, !12}
!12 = !{!"llvm.loop.isvectorized", i32 1}
!13 = distinct !{!13, !10, !14, !12}
!14 = !{!"llvm.loop.unroll.runtime.disable"}
!15 = distinct !{!15, !10}
